; Function Attrs: mustprogress nofree norecurse nosync nounwind willreturn memory(read, inaccessiblemem: write) uwtable
define dso_local noundef zeroext i1 @_ZNK4llvm12RISCVTTIImpl21shouldExpandReductionEPKNS_13IntrinsicInstE(ptr nocapture noundef nonnull readnone align 8 dereferenceable(32) %0, ptr nocapture noundef readonly %1) local_unnamed_addr #6 align 2 {
  %3 = getelementptr inbounds i8, ptr %1, i64 -32
  %4 = load ptr, ptr %3, align 8, !nonnull !10, !noundef !10
  %5 = load i8, ptr %4, align 8
  %6 = icmp eq i8 %5, 0
  tail call void @llvm.assume(i1 %6)
  %7 = getelementptr inbounds nuw i8, ptr %4, i64 24
  %8 = load ptr, ptr %7, align 8
  %9 = getelementptr inbounds nuw i8, ptr %1, i64 80
  %10 = load ptr, ptr %9, align 8
  %11 = icmp eq ptr %8, %10
  tail call void @llvm.assume(i1 %11)
  %12 = getelementptr inbounds nuw i8, ptr %4, i64 36
  %13 = load i32, ptr %12, align 4
  %.off = add i32 %13, -379
  %switch = icmp ult i32 %.off, 2
  ret i1 %switch
}